target datalayout = "e-m:e-p270:32:32-p271:32:32-p272:64:64-i64:64-i128:128-f80:128-n8:16:32:64-S128"
target triple = "x86_64-pc-linux-gnu"

%struct.AVProbeData = type { ptr, ptr, i32, ptr }

; Function Attrs: nounwind uwtable
define internal i32 @lvf_probe(ptr noundef %0) #0 {
  %2 = alloca i32, align 4
  %3 = alloca ptr, align 8
  store ptr %0, ptr %3, align 8, !tbaa !4
  %4 = load ptr, ptr %3, align 8, !tbaa !4
  %5 = getelementptr inbounds nuw %struct.AVProbeData, ptr %4, i32 0, i32 1
  %6 = load ptr, ptr %5, align 8, !tbaa !9
  %7 = load i32, ptr %6, align 1, !tbaa !13
  %8 = icmp ne i32 %7, 1179014732
  br i1 %8, label %9, label %10

9:                                                ; preds = %1
  store i32 0, ptr %2, align 4
  br label %26

10:                                               ; preds = %1
  %11 = load ptr, ptr %3, align 8, !tbaa !4
  %12 = getelementptr inbounds nuw %struct.AVProbeData, ptr %11, i32 0, i32 1
  %13 = load ptr, ptr %12, align 8, !tbaa !9
  %14 = getelementptr inbounds i8, ptr %13, i64 16
  %15 = load i32, ptr %14, align 1, !tbaa !13
  %16 = icmp ne i32 %15, 0
  br i1 %16, label %17, label %24

17:                                               ; preds = %10
  %18 = load ptr, ptr %3, align 8, !tbaa !4
  %19 = getelementptr inbounds nuw %struct.AVProbeData, ptr %18, i32 0, i32 1
  %20 = load ptr, ptr %19, align 8, !tbaa !9
  %21 = getelementptr inbounds i8, ptr %20, i64 16
  %22 = load i32, ptr %21, align 1, !tbaa !13
  %23 = icmp ugt i32 %22, 256
  br i1 %23, label %24, label %25

24:                                               ; preds = %17, %10
  store i32 12, ptr %2, align 4
  br label %26

25:                                               ; preds = %17
  store i32 50, ptr %2, align 4
  br label %26

26:                                               ; preds = %25, %24, %9
  %27 = load i32, ptr %2, align 4
  ret i32 %27
}