; Function Attrs: mustprogress nofree norecurse nosync nounwind willreturn memory(read, inaccessiblemem: none) uwtable
define internal range(i32 0, 51) i32 @lvf_probe(ptr noundef readonly captures(none) %0) #0 {
  %2 = getelementptr inbounds nuw i8, ptr %0, i64 8
  %3 = load ptr, ptr %2, align 8, !tbaa !4
  %4 = load i32, ptr %3, align 1, !tbaa !11
  %.not = icmp eq i32 %4, 1179014732
  br i1 %.not, label %5, label %9

5:                                                ; preds = %1
  %6 = getelementptr inbounds nuw i8, ptr %3, i64 16
  %7 = load i32, ptr %6, align 1, !tbaa !11
  %8 = add i32 %7, -257
  %or.cond = icmp ult i32 %8, -256
  %spec.select = select i1 %or.cond, i32 12, i32 50
  br label %9

9:                                                ; preds = %5, %1
  %.0 = phi i32 [ 0, %1 ], [ %spec.select, %5 ]
  ret i32 %.0
}